target datalayout = "e-m:e-p270:32:32-p271:32:32-p272:64:64-i64:64-i128:128-f80:128-n8:16:32:64-S128"
target triple = "x86_64-pc-linux-gnu"

%struct.AVFilterPad = type { ptr, i32, i32, %union.anon, ptr, ptr, ptr }
%union.anon = type { ptr }
%struct.AVFilterContext = type { ptr, ptr, ptr, ptr, ptr, i32, ptr, ptr, i32, ptr, ptr, i32, i32, ptr, ptr, ptr, ptr, i32, ptr, i32, i32 }
%struct.AudioIIRContext = type { ptr, ptr, ptr, ptr, double, double, double, i32, i32, i32, i32, i32, i32, i32, i32, %struct.AVRational, ptr, ptr, i32, i32, ptr }
%struct.AVRational = type { i32, i32 }

@.str.2 = private unnamed_addr constant [8 x i8] c"default\00", align 1
@.str.73 = private unnamed_addr constant [35 x i8] c"Valid coefficients are mandatory.\0A\00", align 1
@.str.74 = private unnamed_addr constant [16 x i8] c"filter_response\00", align 1

; Function Attrs: cold nounwind optsize uwtable
define internal i32 @init(ptr noundef %0) #0 {
  %2 = alloca i32, align 4
  %3 = alloca ptr, align 8
  %4 = alloca ptr, align 8
  %5 = alloca %struct.AVFilterPad, align 8
  %6 = alloca %struct.AVFilterPad, align 8
  %7 = alloca i32, align 4
  %8 = alloca i32, align 4
  %9 = alloca %struct.AVFilterPad, align 8
  %10 = alloca %struct.AVFilterPad, align 8
  store ptr %0, ptr %3, align 8, !tbaa !4
  call void @llvm.lifetime.start.p0(i64 8, ptr %4) #12
  %11 = load ptr, ptr %3, align 8, !tbaa !4
  %12 = getelementptr inbounds nuw %struct.AVFilterContext, ptr %11, i32 0, i32 9
  %13 = load ptr, ptr %12, align 8, !tbaa !9
  store ptr %13, ptr %4, align 8, !tbaa !22
  call void @llvm.lifetime.start.p0(i64 48, ptr %5) #12
  call void @llvm.lifetime.start.p0(i64 48, ptr %6) #12
  call void @llvm.lifetime.start.p0(i64 4, ptr %7) #12
  %14 = load ptr, ptr %4, align 8, !tbaa !22
  %15 = getelementptr inbounds nuw %struct.AudioIIRContext, ptr %14, i32 0, i32 1
  %16 = load ptr, ptr %15, align 8, !tbaa !24
  %17 = icmp ne ptr %16, null
  br i1 %17, label %18, label %28

18:                                               ; preds = %1
  %19 = load ptr, ptr %4, align 8, !tbaa !22
  %20 = getelementptr inbounds nuw %struct.AudioIIRContext, ptr %19, i32 0, i32 2
  %21 = load ptr, ptr %20, align 8, !tbaa !30
  %22 = icmp ne ptr %21, null
  br i1 %22, label %23, label %28

23:                                               ; preds = %18
  %24 = load ptr, ptr %4, align 8, !tbaa !22
  %25 = getelementptr inbounds nuw %struct.AudioIIRContext, ptr %24, i32 0, i32 3
  %26 = load ptr, ptr %25, align 8, !tbaa !31
  %27 = icmp ne ptr %26, null
  br i1 %27, label %30, label %28

28:                                               ; preds = %23, %18, %1
  %29 = load ptr, ptr %3, align 8, !tbaa !4
  call void (ptr, i32, ptr, ...) @av_log(ptr noundef %29, i32 noundef 16, ptr noundef @.str.73)
  store i32 -22, ptr %2, align 4
  store i32 1, ptr %8, align 4
  br label %82

30:                                               ; preds = %23
  %31 = load ptr, ptr %4, align 8, !tbaa !22
  %32 = getelementptr inbounds nuw %struct.AudioIIRContext, ptr %31, i32 0, i32 10
  %33 = load i32, ptr %32, align 4, !tbaa !32
  switch i32 %33, label %46 [
    i32 0, label %34
    i32 1, label %37
    i32 2, label %40
    i32 3, label %43
  ]

34:                                               ; preds = %30
  %35 = load ptr, ptr %4, align 8, !tbaa !22
  %36 = getelementptr inbounds nuw %struct.AudioIIRContext, ptr %35, i32 0, i32 19
  store i32 9, ptr %36, align 4, !tbaa !33
  br label %47

37:                                               ; preds = %30
  %38 = load ptr, ptr %4, align 8, !tbaa !22
  %39 = getelementptr inbounds nuw %struct.AudioIIRContext, ptr %38, i32 0, i32 19
  store i32 8, ptr %39, align 4, !tbaa !33
  br label %47

40:                                               ; preds = %30
  %41 = load ptr, ptr %4, align 8, !tbaa !22
  %42 = getelementptr inbounds nuw %struct.AudioIIRContext, ptr %41, i32 0, i32 19
  store i32 7, ptr %42, align 4, !tbaa !33
  br label %47

43:                                               ; preds = %30
  %44 = load ptr, ptr %4, align 8, !tbaa !22
  %45 = getelementptr inbounds nuw %struct.AudioIIRContext, ptr %44, i32 0, i32 19
  store i32 6, ptr %45, align 4, !tbaa !33
  br label %47

46:                                               ; preds = %30
  store i32 -558323010, ptr %2, align 4
  store i32 1, ptr %8, align 4
  br label %82

47:                                               ; preds = %43, %40, %37, %34
  %48 = getelementptr inbounds nuw %struct.AVFilterPad, ptr %9, i32 0, i32 0
  store ptr @.str.2, ptr %48, align 8, !tbaa !34
  %49 = getelementptr inbounds nuw %struct.AVFilterPad, ptr %9, i32 0, i32 1
  store i32 1, ptr %49, align 8, !tbaa !36
  %50 = getelementptr inbounds nuw %struct.AVFilterPad, ptr %9, i32 0, i32 2
  store i32 0, ptr %50, align 4, !tbaa !37
  %51 = getelementptr inbounds nuw %struct.AVFilterPad, ptr %9, i32 0, i32 3
  call void @llvm.memset.p0.i64(ptr align 8 %51, i8 0, i64 8, i1 false)
  %52 = getelementptr inbounds nuw %struct.AVFilterPad, ptr %9, i32 0, i32 4
  store ptr null, ptr %52, align 8, !tbaa !38
  %53 = getelementptr inbounds nuw %struct.AVFilterPad, ptr %9, i32 0, i32 5
  store ptr null, ptr %53, align 8, !tbaa !39
  %54 = getelementptr inbounds nuw %struct.AVFilterPad, ptr %9, i32 0, i32 6
  store ptr @config_output, ptr %54, align 8, !tbaa !40
  call void @llvm.memcpy.p0.p0.i64(ptr align 8 %5, ptr align 8 %9, i64 48, i1 false), !tbaa.struct !41
  %55 = load ptr, ptr %3, align 8, !tbaa !4
  %56 = call i32 @ff_append_outpad(ptr noundef %55, ptr noundef %5)
  store i32 %56, ptr %7, align 4, !tbaa !43
  %57 = load i32, ptr %7, align 4, !tbaa !43
  %58 = icmp slt i32 %57, 0
  br i1 %58, label %59, label %61

59:                                               ; preds = %47
  %60 = load i32, ptr %7, align 4, !tbaa !43
  store i32 %60, ptr %2, align 4
  store i32 1, ptr %8, align 4
  br label %82

61:                                               ; preds = %47
  %62 = load ptr, ptr %4, align 8, !tbaa !22
  %63 = getelementptr inbounds nuw %struct.AudioIIRContext, ptr %62, i32 0, i32 11
  %64 = load i32, ptr %63, align 8, !tbaa !46
  %65 = icmp ne i32 %64, 0
  br i1 %65, label %66, label %81

66:                                               ; preds = %61
  %67 = getelementptr inbounds nuw %struct.AVFilterPad, ptr %10, i32 0, i32 0
  store ptr @.str.74, ptr %67, align 8, !tbaa !34
  %68 = getelementptr inbounds nuw %struct.AVFilterPad, ptr %10, i32 0, i32 1
  store i32 0, ptr %68, align 8, !tbaa !36
  %69 = getelementptr inbounds nuw %struct.AVFilterPad, ptr %10, i32 0, i32 2
  store i32 0, ptr %69, align 4, !tbaa !37
  %70 = getelementptr inbounds nuw %struct.AVFilterPad, ptr %10, i32 0, i32 3
  call void @llvm.memset.p0.i64(ptr align 8 %70, i8 0, i64 8, i1 false)
  %71 = getelementptr inbounds nuw %struct.AVFilterPad, ptr %10, i32 0, i32 4
  store ptr null, ptr %71, align 8, !tbaa !38
  %72 = getelementptr inbounds nuw %struct.AVFilterPad, ptr %10, i32 0, i32 5
  store ptr null, ptr %72, align 8, !tbaa !39
  %73 = getelementptr inbounds nuw %struct.AVFilterPad, ptr %10, i32 0, i32 6
  store ptr @config_video, ptr %73, align 8, !tbaa !40
  call void @llvm.memcpy.p0.p0.i64(ptr align 8 %6, ptr align 8 %10, i64 48, i1 false), !tbaa.struct !41
  %74 = load ptr, ptr %3, align 8, !tbaa !4
  %75 = call i32 @ff_append_outpad(ptr noundef %74, ptr noundef %6)
  store i32 %75, ptr %7, align 4, !tbaa !43
  %76 = load i32, ptr %7, align 4, !tbaa !43
  %77 = icmp slt i32 %76, 0
  br i1 %77, label %78, label %80

78:                                               ; preds = %66
  %79 = load i32, ptr %7, align 4, !tbaa !43
  store i32 %79, ptr %2, align 4
  store i32 1, ptr %8, align 4
  br label %82

80:                                               ; preds = %66
  br label %81

81:                                               ; preds = %80, %61
  store i32 0, ptr %2, align 4
  store i32 1, ptr %8, align 4
  br label %82

82:                                               ; preds = %81, %78, %59, %46, %28
  call void @llvm.lifetime.end.p0(i64 4, ptr %7) #12
  call void @llvm.lifetime.end.p0(i64 48, ptr %6) #12
  call void @llvm.lifetime.end.p0(i64 48, ptr %5) #12
  call void @llvm.lifetime.end.p0(i64 8, ptr %4) #12
  %83 = load i32, ptr %2, align 4
  ret i32 %83
}