; Function Attrs: cold nounwind optsize uwtable
define internal range(i32 -2147483648, 1) i32 @init(ptr noundef %0) #0 {
  %2 = alloca %struct.AVFilterPad, align 8
  %3 = alloca %struct.AVFilterPad, align 8
  %4 = getelementptr inbounds nuw i8, ptr %0, i64 72
  %5 = load ptr, ptr %4, align 8, !tbaa !4
  call void @llvm.lifetime.start.p0(i64 48, ptr nonnull %2) #14
  call void @llvm.lifetime.start.p0(i64 48, ptr nonnull %3) #14
  %6 = getelementptr inbounds nuw i8, ptr %5, i64 8
  %7 = load ptr, ptr %6, align 8, !tbaa !20
  %.not = icmp eq ptr %7, null
  br i1 %.not, label %14, label %8

8:                                                ; preds = %1
  %9 = getelementptr inbounds nuw i8, ptr %5, i64 16
  %10 = load ptr, ptr %9, align 8, !tbaa !26
  %.not26 = icmp eq ptr %10, null
  br i1 %.not26, label %14, label %11

11:                                               ; preds = %8
  %12 = getelementptr inbounds nuw i8, ptr %5, i64 24
  %13 = load ptr, ptr %12, align 8, !tbaa !27
  %.not27 = icmp eq ptr %13, null
  br i1 %.not27, label %14, label %15

14:                                               ; preds = %11, %8, %1
  tail call void (ptr, i32, ptr, ...) @av_log(ptr noundef nonnull %0, i32 noundef 16, ptr noundef nonnull @.str.73) #14
  br label %29

15:                                               ; preds = %11
  %16 = getelementptr inbounds nuw i8, ptr %5, i64 68
  %17 = load i32, ptr %16, align 4, !tbaa !28
  %18 = icmp ult i32 %17, 4
  br i1 %18, label %switch.lookup, label %29

switch.lookup:                                    ; preds = %15
  %switch.offset = sub nuw nsw i32 9, %17
  %19 = getelementptr inbounds nuw i8, ptr %5, i64 116
  store i32 %switch.offset, ptr %19, align 4, !tbaa !29
  store ptr @.str.2, ptr %2, align 8, !tbaa !30
  %.sroa.22.0..sroa_idx = getelementptr inbounds nuw i8, ptr %2, i64 8
  store i32 1, ptr %.sroa.22.0..sroa_idx, align 8, !tbaa !31
  %.sroa.33.0..sroa_idx = getelementptr inbounds nuw i8, ptr %2, i64 12
  %.sroa.77.0..sroa_idx = getelementptr inbounds nuw i8, ptr %2, i64 40
  call void @llvm.memset.p0.i64(ptr noundef nonnull align 4 dereferenceable(28) %.sroa.33.0..sroa_idx, i8 0, i64 28, i1 false)
  store ptr @config_output, ptr %.sroa.77.0..sroa_idx, align 8, !tbaa !32
  %20 = call i32 @ff_append_outpad(ptr noundef nonnull %0, ptr noundef nonnull %2) #14
  %21 = icmp slt i32 %20, 0
  br i1 %21, label %29, label %22

22:                                               ; preds = %switch.lookup
  %23 = getelementptr inbounds nuw i8, ptr %5, i64 72
  %24 = load i32, ptr %23, align 8, !tbaa !33
  %.not28 = icmp eq i32 %24, 0
  br i1 %.not28, label %28, label %25

25:                                               ; preds = %22
  store ptr @.str.74, ptr %3, align 8, !tbaa !30
  %.sroa.2.0..sroa_idx = getelementptr inbounds nuw i8, ptr %3, i64 8
  %.sroa.7.0..sroa_idx = getelementptr inbounds nuw i8, ptr %3, i64 40
  call void @llvm.memset.p0.i64(ptr noundef nonnull align 8 dereferenceable(32) %.sroa.2.0..sroa_idx, i8 0, i64 32, i1 false)
  store ptr @config_video, ptr %.sroa.7.0..sroa_idx, align 8, !tbaa !32
  %26 = call i32 @ff_append_outpad(ptr noundef nonnull %0, ptr noundef nonnull %3) #14
  %27 = icmp slt i32 %26, 0
  br i1 %27, label %29, label %28

28:                                               ; preds = %25, %22
  br label %29

29:                                               ; preds = %15, %25, %switch.lookup, %28, %14
  %.0 = phi i32 [ 0, %28 ], [ -22, %14 ], [ -558323010, %15 ], [ %20, %switch.lookup ], [ %26, %25 ]
  call void @llvm.lifetime.end.p0(i64 48, ptr nonnull %3) #14
  call void @llvm.lifetime.end.p0(i64 48, ptr nonnull %2) #14
  ret i32 %.0
}